target datalayout = "e-m:e-p270:32:32-p271:32:32-p272:64:64-i64:64-i128:128-f80:128-n8:16:32:64-S128"
target triple = "x86_64-unknown-linux-gnu"

%"class.google::protobuf::internal::EpsCopyInputStream" = type { ptr, ptr, ptr, i32, i32, ptr, [32 x i8], i64, i32, i32 }

; Function Attrs: mustprogress nounwind uwtable
define linkonce_odr noundef nonnull align 4 dereferenceable(4) ptr @_ZSt3minIiERKT_S2_S2_(ptr noundef nonnull align 4 dereferenceable(4) %__a, ptr noundef nonnull align 4 dereferenceable(4) %__b) #5 comdat {
entry:
  %retval = alloca ptr, align 8
  %__a.addr = alloca ptr, align 8
  %__b.addr = alloca ptr, align 8
  store ptr %__a, ptr %__a.addr, align 8
  store ptr %__b, ptr %__b.addr, align 8
  %0 = load ptr, ptr %__b.addr, align 8
  %1 = load i32, ptr %0, align 4
  %2 = load ptr, ptr %__a.addr, align 8
  %3 = load i32, ptr %2, align 4
  %cmp = icmp slt i32 %1, %3
  br i1 %cmp, label %if.then, label %if.end

if.then:                                          ; preds = %entry
  %4 = load ptr, ptr %__b.addr, align 8
  store ptr %4, ptr %retval, align 8
  br label %return

if.end:                                           ; preds = %entry
  %5 = load ptr, ptr %__a.addr, align 8
  store ptr %5, ptr %retval, align 8
  br label %return

return:                                           ; preds = %if.end, %if.then
  %6 = load ptr, ptr %retval, align 8
  ret ptr %6
}

; Function Attrs: mustprogress nounwind uwtable
define linkonce_odr hidden void @_ZN6google8protobuf8internal18EpsCopyInputStream14SetEndOfStreamEv(ptr noundef nonnull align 8 dereferenceable(88) %this) #5 comdat align 2 {
entry:
  %this.addr = alloca ptr, align 8
  store ptr %this, ptr %this.addr, align 8
  %this1 = load ptr, ptr %this.addr, align 8
  %last_tag_minus_1_ = getelementptr inbounds %"class.google::protobuf::internal::EpsCopyInputStream", ptr %this1, i32 0, i32 8
  store i32 1, ptr %last_tag_minus_1_, align 8
  ret void
}

; Function Attrs: mustprogress uwtable
define noundef ptr @_ZN6google8protobuf8internal18EpsCopyInputStream4NextEv(ptr noundef nonnull align 8 dereferenceable(88) %this) #4 align 2 {
entry:
  %retval = alloca ptr, align 8
  %this.addr = alloca ptr, align 8
  %p = alloca ptr, align 8
  %ref.tmp = alloca i32, align 4
  store ptr %this, ptr %this.addr, align 8
  %this1 = load ptr, ptr %this.addr, align 8
  %call = call noundef ptr @_ZN6google8protobuf8internal18EpsCopyInputStream10NextBufferEii(ptr noundef nonnull align 8 dereferenceable(88) %this1, i32 noundef 0, i32 noundef -1)
  store ptr %call, ptr %p, align 8
  %0 = load ptr, ptr %p, align 8
  %cmp = icmp eq ptr %0, null
  br i1 %cmp, label %if.then, label %if.end

if.then:                                          ; preds = %entry
  %buffer_end_ = getelementptr inbounds %"class.google::protobuf::internal::EpsCopyInputStream", ptr %this1, i32 0, i32 1
  %1 = load ptr, ptr %buffer_end_, align 8
  %limit_end_ = getelementptr inbounds %"class.google::protobuf::internal::EpsCopyInputStream", ptr %this1, i32 0, i32 0
  store ptr %1, ptr %limit_end_, align 8
  call void @_ZN6google8protobuf8internal18EpsCopyInputStream14SetEndOfStreamEv(ptr noundef nonnull align 8 dereferenceable(88) %this1)
  store ptr null, ptr %retval, align 8
  br label %return

if.end:                                           ; preds = %entry
  %buffer_end_2 = getelementptr inbounds %"class.google::protobuf::internal::EpsCopyInputStream", ptr %this1, i32 0, i32 1
  %2 = load ptr, ptr %buffer_end_2, align 8
  %3 = load ptr, ptr %p, align 8
  %sub.ptr.lhs.cast = ptrtoint ptr %2 to i64
  %sub.ptr.rhs.cast = ptrtoint ptr %3 to i64
  %sub.ptr.sub = sub i64 %sub.ptr.lhs.cast, %sub.ptr.rhs.cast
  %limit_ = getelementptr inbounds %"class.google::protobuf::internal::EpsCopyInputStream", ptr %this1, i32 0, i32 4
  %4 = load i32, ptr %limit_, align 4
  %conv = sext i32 %4 to i64
  %sub = sub nsw i64 %conv, %sub.ptr.sub
  %conv3 = trunc i64 %sub to i32
  store i32 %conv3, ptr %limit_, align 4
  %buffer_end_4 = getelementptr inbounds %"class.google::protobuf::internal::EpsCopyInputStream", ptr %this1, i32 0, i32 1
  %5 = load ptr, ptr %buffer_end_4, align 8
  store i32 0, ptr %ref.tmp, align 4
  %limit_5 = getelementptr inbounds %"class.google::protobuf::internal::EpsCopyInputStream", ptr %this1, i32 0, i32 4
  %call6 = call noundef nonnull align 4 dereferenceable(4) ptr @_ZSt3minIiERKT_S2_S2_(ptr noundef nonnull align 4 dereferenceable(4) %ref.tmp, ptr noundef nonnull align 4 dereferenceable(4) %limit_5)
  %6 = load i32, ptr %call6, align 4
  %idx.ext = sext i32 %6 to i64
  %add.ptr = getelementptr inbounds i8, ptr %5, i64 %idx.ext
  %limit_end_7 = getelementptr inbounds %"class.google::protobuf::internal::EpsCopyInputStream", ptr %this1, i32 0, i32 0
  store ptr %add.ptr, ptr %limit_end_7, align 8
  %7 = load ptr, ptr %p, align 8
  store ptr %7, ptr %retval, align 8
  br label %return

return:                                           ; preds = %if.end, %if.then
  %8 = load ptr, ptr %retval, align 8
  ret ptr %8
}