; Function Attrs: mustprogress uwtable
define noundef ptr @_ZN6google8protobuf8internal18EpsCopyInputStream4NextEv(ptr noundef nonnull align 8 dereferenceable(88) %this) local_unnamed_addr #4 align 2 {
entry:
  %call = tail call noundef ptr @_ZN6google8protobuf8internal18EpsCopyInputStream10NextBufferEii(ptr noundef nonnull align 8 dereferenceable(88) %this, i32 noundef 0, i32 noundef -1)
  %cmp = icmp eq ptr %call, null
  %buffer_end_ = getelementptr inbounds nuw i8, ptr %this, i64 8
  %0 = load ptr, ptr %buffer_end_, align 8
  br i1 %cmp, label %if.then, label %if.end

if.then:                                          ; preds = %entry
  %last_tag_minus_1_.i = getelementptr inbounds nuw i8, ptr %this, i64 80
  store i32 1, ptr %last_tag_minus_1_.i, align 8
  br label %return

if.end:                                           ; preds = %entry
  %sub.ptr.lhs.cast = ptrtoint ptr %0 to i64
  %sub.ptr.rhs.cast = ptrtoint ptr %call to i64
  %sub.ptr.sub.neg = sub i64 %sub.ptr.rhs.cast, %sub.ptr.lhs.cast
  %limit_ = getelementptr inbounds nuw i8, ptr %this, i64 28
  %1 = load i32, ptr %limit_, align 4
  %2 = trunc i64 %sub.ptr.sub.neg to i32
  %conv3 = add i32 %1, %2
  store i32 %conv3, ptr %limit_, align 4
  %.sroa.speculated = tail call i32 @llvm.smin.i32(i32 %conv3, i32 0)
  %idx.ext = sext i32 %.sroa.speculated to i64
  %add.ptr = getelementptr inbounds i8, ptr %0, i64 %idx.ext
  br label %return

return:                                           ; preds = %if.end, %if.then
  %add.ptr.sink = phi ptr [ %0, %if.then ], [ %add.ptr, %if.end ]
  store ptr %add.ptr.sink, ptr %this, align 8
  ret ptr %call
}